target datalayout = "e-m:e-p270:32:32-p271:32:32-p272:64:64-i64:64-i128:128-f80:128-n8:16:32:64-S128"
target triple = "x86_64-pc-linux-gnu"

%struct.stats_state = type { i64, i64, i64, i64, float, i32, i32, i32, i32, i8, i8, i8, i8 }
%struct.stats = type { i64, i64, i64, i64, i64, i64, i64, i64, i64, i64, i64, i64, i64, i64, i64, i64, i64, i64, i64, i64, i64, i64, i64, i64, %struct.timeval, i64, i64 }
%struct.timeval = type { i64, i64 }
%struct._stritem = type { ptr, ptr, ptr, i32, i32, i32, i16, i16, i8, i8, [0 x %union.anon] }
%union.anon = type { i64 }

@current_time = external global i32, align 4
@stats_state = external global %struct.stats_state, align 8
@stats = external global %struct.stats, align 8
@stats_sizes_hist = internal global ptr null, align 8
@stats_sizes_buckets = internal global i32 0, align 4

; Function Attrs: nounwind uwtable
define dso_local void @item_stats_sizes_add(ptr noundef %0) #0 {
  %2 = alloca ptr, align 8
  %3 = alloca i32, align 4
  %4 = alloca i32, align 4
  store ptr %0, ptr %2, align 8, !tbaa !16
  %5 = load ptr, ptr @stats_sizes_hist, align 8, !tbaa !79
  %6 = icmp eq ptr %5, null
  br i1 %6, label %7, label %8

7:                                                ; preds = %1
  br label %57

8:                                                ; preds = %1
  call void @llvm.lifetime.start.p0(i64 4, ptr %3) #9
  %9 = load ptr, ptr %2, align 8, !tbaa !16
  %10 = getelementptr inbounds nuw %struct._stritem, ptr %9, i32 0, i32 9
  %11 = load i8, ptr %10, align 1, !tbaa !30
  %12 = zext i8 %11 to i64
  %13 = add i64 48, %12
  %14 = add i64 %13, 1
  %15 = load ptr, ptr %2, align 8, !tbaa !16
  %16 = getelementptr inbounds nuw %struct._stritem, ptr %15, i32 0, i32 5
  %17 = load i32, ptr %16, align 8, !tbaa !4
  %18 = sext i32 %17 to i64
  %19 = add i64 %14, %18
  %20 = load ptr, ptr %2, align 8, !tbaa !16
  %21 = getelementptr inbounds nuw %struct._stritem, ptr %20, i32 0, i32 7
  %22 = load i16, ptr %21, align 2, !tbaa !34
  %23 = zext i16 %22 to i32
  %24 = and i32 %23, 256
  %25 = icmp ne i32 %24, 0
  %26 = select i1 %25, i64 4, i64 0
  %27 = add i64 %19, %26
  %28 = load ptr, ptr %2, align 8, !tbaa !16
  %29 = getelementptr inbounds nuw %struct._stritem, ptr %28, i32 0, i32 7
  %30 = load i16, ptr %29, align 2, !tbaa !34
  %31 = zext i16 %30 to i32
  %32 = and i32 %31, 2
  %33 = icmp ne i32 %32, 0
  %34 = select i1 %33, i64 8, i64 0
  %35 = add i64 %27, %34
  %36 = trunc i64 %35 to i32
  store i32 %36, ptr %3, align 4, !tbaa !4
  call void @llvm.lifetime.start.p0(i64 4, ptr %4) #9
  %37 = load i32, ptr %3, align 4, !tbaa !4
  %38 = sdiv i32 %37, 32
  store i32 %38, ptr %4, align 4, !tbaa !4
  %39 = load i32, ptr %3, align 4, !tbaa !4
  %40 = srem i32 %39, 32
  %41 = icmp ne i32 %40, 0
  br i1 %41, label %42, label %45

42:                                               ; preds = %8
  %43 = load i32, ptr %4, align 4, !tbaa !4
  %44 = add nsw i32 %43, 1
  store i32 %44, ptr %4, align 4, !tbaa !4
  br label %45

45:                                               ; preds = %42, %8
  %46 = load i32, ptr %4, align 4, !tbaa !4
  %47 = load i32, ptr @stats_sizes_buckets, align 4, !tbaa !4
  %48 = icmp slt i32 %46, %47
  br i1 %48, label %49, label %56

49:                                               ; preds = %45
  %50 = load ptr, ptr @stats_sizes_hist, align 8, !tbaa !79
  %51 = load i32, ptr %4, align 4, !tbaa !4
  %52 = sext i32 %51 to i64
  %53 = getelementptr inbounds i32, ptr %50, i64 %52
  %54 = load i32, ptr %53, align 4, !tbaa !4
  %55 = add i32 %54, 1
  store i32 %55, ptr %53, align 4, !tbaa !4
  br label %56

56:                                               ; preds = %49, %45
  call void @llvm.lifetime.end.p0(i64 4, ptr %4) #9
  call void @llvm.lifetime.end.p0(i64 4, ptr %3) #9
  br label %57

57:                                               ; preds = %56, %7
  ret void
}

; Function Attrs: nounwind uwtable
define dso_local i32 @do_item_link(ptr noundef %0, i32 noundef %1, i64 noundef %2) #0 {
  %4 = alloca ptr, align 8
  %5 = alloca i32, align 4
  %6 = alloca i64, align 8
  store ptr %0, ptr %4, align 8, !tbaa !16
  store i32 %1, ptr %5, align 4, !tbaa !4
  store i64 %2, ptr %6, align 8, !tbaa !10
  %7 = load ptr, ptr %4, align 8, !tbaa !16
  %8 = getelementptr inbounds nuw %struct._stritem, ptr %7, i32 0, i32 7
  %9 = load i16, ptr %8, align 2, !tbaa !34
  %10 = zext i16 %9 to i32
  %11 = or i32 %10, 1
  %12 = trunc i32 %11 to i16
  store i16 %12, ptr %8, align 2, !tbaa !34
  %13 = load volatile i32, ptr @current_time, align 4, !tbaa !4
  %14 = load ptr, ptr %4, align 8, !tbaa !16
  %15 = getelementptr inbounds nuw %struct._stritem, ptr %14, i32 0, i32 3
  store i32 %13, ptr %15, align 8, !tbaa !4
  call void @STATS_LOCK()
  %16 = load ptr, ptr %4, align 8, !tbaa !16
  %17 = getelementptr inbounds nuw %struct._stritem, ptr %16, i32 0, i32 9
  %18 = load i8, ptr %17, align 1, !tbaa !30
  %19 = zext i8 %18 to i64
  %20 = add i64 48, %19
  %21 = add i64 %20, 1
  %22 = load ptr, ptr %4, align 8, !tbaa !16
  %23 = getelementptr inbounds nuw %struct._stritem, ptr %22, i32 0, i32 5
  %24 = load i32, ptr %23, align 8, !tbaa !4
  %25 = sext i32 %24 to i64
  %26 = add i64 %21, %25
  %27 = load ptr, ptr %4, align 8, !tbaa !16
  %28 = getelementptr inbounds nuw %struct._stritem, ptr %27, i32 0, i32 7
  %29 = load i16, ptr %28, align 2, !tbaa !34
  %30 = zext i16 %29 to i32
  %31 = and i32 %30, 256
  %32 = icmp ne i32 %31, 0
  %33 = select i1 %32, i64 4, i64 0
  %34 = add i64 %26, %33
  %35 = load ptr, ptr %4, align 8, !tbaa !16
  %36 = getelementptr inbounds nuw %struct._stritem, ptr %35, i32 0, i32 7
  %37 = load i16, ptr %36, align 2, !tbaa !34
  %38 = zext i16 %37 to i32
  %39 = and i32 %38, 2
  %40 = icmp ne i32 %39, 0
  %41 = select i1 %40, i64 8, i64 0
  %42 = add i64 %34, %41
  %43 = load i64, ptr getelementptr inbounds nuw (%struct.stats_state, ptr @stats_state, i32 0, i32 1), align 8, !tbaa !72
  %44 = add i64 %43, %42
  store i64 %44, ptr getelementptr inbounds nuw (%struct.stats_state, ptr @stats_state, i32 0, i32 1), align 8, !tbaa !72
  %45 = load i64, ptr @stats_state, align 8, !tbaa !75
  %46 = add i64 %45, 1
  store i64 %46, ptr @stats_state, align 8, !tbaa !75
  %47 = load i64, ptr @stats, align 8, !tbaa !76
  %48 = add i64 %47, 1
  store i64 %48, ptr @stats, align 8, !tbaa !76
  call void @STATS_UNLOCK()
  %49 = load ptr, ptr %4, align 8, !tbaa !16
  %50 = getelementptr inbounds nuw %struct._stritem, ptr %49, i32 0, i32 7
  %51 = load i16, ptr %50, align 2, !tbaa !34
  %52 = zext i16 %51 to i32
  %53 = and i32 %52, 2
  %54 = icmp ne i32 %53, 0
  br i1 %54, label %55, label %60

55:                                               ; preds = %3
  %56 = load i64, ptr %6, align 8, !tbaa !10
  %57 = load ptr, ptr %4, align 8, !tbaa !16
  %58 = getelementptr inbounds nuw %struct._stritem, ptr %57, i32 0, i32 10
  %59 = getelementptr inbounds [0 x %union.anon], ptr %58, i64 0, i64 0
  store i64 %56, ptr %59, align 8, !tbaa !30
  br label %60

60:                                               ; preds = %55, %3
  %61 = load ptr, ptr %4, align 8, !tbaa !16
  %62 = load i32, ptr %5, align 4, !tbaa !4
  %63 = call i32 @assoc_insert(ptr noundef %61, i32 noundef %62)
  %64 = load ptr, ptr %4, align 8, !tbaa !16
  call void @item_link_q(ptr noundef %64)
  %65 = load ptr, ptr %4, align 8, !tbaa !16
  %66 = getelementptr inbounds nuw %struct._stritem, ptr %65, i32 0, i32 6
  %67 = load i16, ptr %66, align 4, !tbaa !34
  %68 = add i16 %67, 1
  store i16 %68, ptr %66, align 4, !tbaa !34
  %69 = load ptr, ptr %4, align 8, !tbaa !16
  call void @item_stats_sizes_add(ptr noundef %69)
  ret i32 1
}