; Function Attrs: nounwind uwtable
define dso_local noundef i32 @do_item_link(ptr noundef initializes((24, 28)) %0, i32 noundef %1, i64 noundef %2) local_unnamed_addr #0 {
  %4 = getelementptr inbounds nuw i8, ptr %0, i64 38
  %5 = load i16, ptr %4, align 2, !tbaa !31
  %6 = or i16 %5, 1
  store i16 %6, ptr %4, align 2, !tbaa !31
  %7 = load volatile i32, ptr @current_time, align 4, !tbaa !22
  %8 = getelementptr inbounds nuw i8, ptr %0, i64 24
  store i32 %7, ptr %8, align 8, !tbaa !22
  tail call void @STATS_LOCK() #19
  %9 = getelementptr inbounds nuw i8, ptr %0, i64 41
  %10 = load i8, ptr %9, align 1, !tbaa !30
  %11 = zext i8 %10 to i64
  %12 = add nuw nsw i64 %11, 49
  %13 = getelementptr inbounds nuw i8, ptr %0, i64 32
  %14 = load i32, ptr %13, align 8, !tbaa !22
  %15 = sext i32 %14 to i64
  %16 = add nsw i64 %12, %15
  %17 = load i16, ptr %4, align 2, !tbaa !31
  %18 = zext i16 %17 to i32
  %19 = lshr i32 %18, 6
  %20 = and i32 %19, 4
  %21 = zext nneg i32 %20 to i64
  %22 = shl nuw nsw i32 %18, 2
  %23 = and i32 %22, 8
  %24 = zext nneg i32 %23 to i64
  %25 = load i64, ptr getelementptr inbounds nuw (i8, ptr @stats_state, i64 8), align 8, !tbaa !66
  %26 = add i64 %16, %25
  %27 = add i64 %26, %21
  %28 = add i64 %27, %24
  store i64 %28, ptr getelementptr inbounds nuw (i8, ptr @stats_state, i64 8), align 8, !tbaa !66
  %29 = load i64, ptr @stats_state, align 8, !tbaa !69
  %30 = add i64 %29, 1
  store i64 %30, ptr @stats_state, align 8, !tbaa !69
  %31 = load i64, ptr @stats, align 8, !tbaa !70
  %32 = add i64 %31, 1
  store i64 %32, ptr @stats, align 8, !tbaa !70
  tail call void @STATS_UNLOCK() #19
  %33 = load i16, ptr %4, align 2, !tbaa !31
  %34 = and i16 %33, 2
  %.not = icmp eq i16 %34, 0
  br i1 %.not, label %37, label %35

35:                                               ; preds = %3
  %36 = getelementptr inbounds nuw i8, ptr %0, i64 48
  store i64 %2, ptr %36, align 8, !tbaa !30
  br label %37

37:                                               ; preds = %35, %3
  %38 = tail call i32 @assoc_insert(ptr noundef nonnull %0, i32 noundef %1) #19
  tail call fastcc void @item_link_q(ptr noundef nonnull %0)
  %39 = getelementptr inbounds nuw i8, ptr %0, i64 36
  %40 = load i16, ptr %39, align 4, !tbaa !31
  %41 = add i16 %40, 1
  store i16 %41, ptr %39, align 4, !tbaa !31
  %42 = load ptr, ptr @stats_sizes_hist, align 8, !tbaa !73
  %43 = icmp eq ptr %42, null
  br i1 %43, label %item_stats_sizes_add.exit, label %44

44:                                               ; preds = %37
  %45 = load i8, ptr %9, align 1, !tbaa !30
  %46 = zext i8 %45 to i32
  %47 = add nuw nsw i32 %46, 49
  %48 = load i32, ptr %13, align 8, !tbaa !22
  %49 = add i32 %47, %48
  %50 = load i16, ptr %4, align 2, !tbaa !31
  %51 = zext i16 %50 to i32
  %52 = lshr i32 %51, 6
  %53 = and i32 %52, 4
  %54 = add i32 %49, %53
  %55 = shl nuw nsw i32 %51, 2
  %56 = and i32 %55, 8
  %57 = add i32 %54, %56
  %58 = sdiv i32 %57, 32
  %59 = and i32 %57, 31
  %.not.i = icmp ne i32 %59, 0
  %60 = zext i1 %.not.i to i32
  %spec.select.i = add nsw i32 %58, %60
  %61 = load i32, ptr @stats_sizes_buckets, align 4, !tbaa !22
  %62 = icmp slt i32 %spec.select.i, %61
  br i1 %62, label %63, label %item_stats_sizes_add.exit

63:                                               ; preds = %44
  %64 = sext i32 %spec.select.i to i64
  %65 = getelementptr inbounds i32, ptr %42, i64 %64
  %66 = load i32, ptr %65, align 4, !tbaa !22
  %67 = add i32 %66, 1
  store i32 %67, ptr %65, align 4, !tbaa !22
  br label %item_stats_sizes_add.exit

item_stats_sizes_add.exit:                        ; preds = %37, %44, %63
  ret i32 1
}